target datalayout = "e-m:e-p270:32:32-p271:32:32-p272:64:64-i64:64-i128:128-f80:128-n8:16:32:64-S128"
target triple = "x86_64-pc-linux-gnu"

%struct._generic_SUNLinearSolver = type { ptr, ptr, ptr }
%struct._SUNLinearSolverContent_SPFGMR = type { i32, i32, i32, i32, i32, i32, double, i32, ptr, ptr, ptr, ptr, ptr, ptr, ptr, ptr, ptr, ptr, ptr, ptr, ptr, ptr, ptr, ptr }
%struct._generic_N_Vector = type { ptr, ptr, ptr }
%struct._generic_N_Vector_Ops = type { ptr, ptr, ptr, ptr, ptr, ptr, ptr, ptr, ptr, ptr, ptr, ptr, ptr, ptr, ptr, ptr, ptr, ptr, ptr, ptr, ptr, ptr, ptr, ptr, ptr, ptr, ptr, ptr, ptr, ptr, ptr, ptr, ptr, ptr, ptr, ptr, ptr, ptr, ptr, ptr, ptr, ptr, ptr, ptr, ptr, ptr, ptr, ptr, ptr, ptr, ptr, ptr, ptr, ptr, ptr, ptr }

; Function Attrs: nounwind uwtable
define i32 @SUNLinSolSpace_SPFGMR(ptr noundef %0, ptr noundef %1, ptr noundef %2) #0 {
  %4 = alloca ptr, align 8
  %5 = alloca ptr, align 8
  %6 = alloca ptr, align 8
  %7 = alloca ptr, align 8
  %8 = alloca i32, align 4
  %9 = alloca i64, align 8
  %10 = alloca i64, align 8
  store ptr %0, ptr %4, align 8, !tbaa !12
  store ptr %1, ptr %5, align 8, !tbaa !75
  store ptr %2, ptr %6, align 8, !tbaa !75
  call void @llvm.lifetime.start.p0(i64 8, ptr %7) #6
  %11 = load ptr, ptr %4, align 8, !tbaa !12
  %12 = getelementptr inbounds nuw %struct._generic_SUNLinearSolver, ptr %11, i32 0, i32 2
  %13 = load ptr, ptr %12, align 8, !tbaa !66
  store ptr %13, ptr %7, align 8, !tbaa !10
  call void @llvm.lifetime.start.p0(i64 4, ptr %8) #6
  call void @llvm.lifetime.start.p0(i64 8, ptr %9) #6
  call void @llvm.lifetime.start.p0(i64 8, ptr %10) #6
  %14 = load ptr, ptr %4, align 8, !tbaa !12
  %15 = getelementptr inbounds nuw %struct._generic_SUNLinearSolver, ptr %14, i32 0, i32 0
  %16 = load ptr, ptr %15, align 8, !tbaa !35
  %17 = getelementptr inbounds nuw %struct._SUNLinearSolverContent_SPFGMR, ptr %16, i32 0, i32 0
  %18 = load i32, ptr %17, align 8, !tbaa !42
  store i32 %18, ptr %8, align 4, !tbaa !8
  %19 = load ptr, ptr %4, align 8, !tbaa !12
  %20 = getelementptr inbounds nuw %struct._generic_SUNLinearSolver, ptr %19, i32 0, i32 0
  %21 = load ptr, ptr %20, align 8, !tbaa !35
  %22 = getelementptr inbounds nuw %struct._SUNLinearSolverContent_SPFGMR, ptr %21, i32 0, i32 21
  %23 = load ptr, ptr %22, align 8, !tbaa !50
  %24 = getelementptr inbounds nuw %struct._generic_N_Vector, ptr %23, i32 0, i32 1
  %25 = load ptr, ptr %24, align 8, !tbaa !77
  %26 = getelementptr inbounds nuw %struct._generic_N_Vector_Ops, ptr %25, i32 0, i32 4
  %27 = load ptr, ptr %26, align 8, !tbaa !80
  %28 = icmp ne ptr %27, null
  br i1 %28, label %29, label %35

29:                                               ; preds = %3
  %30 = load ptr, ptr %4, align 8, !tbaa !12
  %31 = getelementptr inbounds nuw %struct._generic_SUNLinearSolver, ptr %30, i32 0, i32 0
  %32 = load ptr, ptr %31, align 8, !tbaa !35
  %33 = getelementptr inbounds nuw %struct._SUNLinearSolverContent_SPFGMR, ptr %32, i32 0, i32 21
  %34 = load ptr, ptr %33, align 8, !tbaa !50
  call void @N_VSpace(ptr noundef %34, ptr noundef %10, ptr noundef %9)
  br label %36

35:                                               ; preds = %3
  store i64 0, ptr %9, align 8, !tbaa !82
  store i64 0, ptr %10, align 8, !tbaa !82
  br label %36

36:                                               ; preds = %35, %29
  %37 = load i64, ptr %10, align 8, !tbaa !82
  %38 = load i32, ptr %8, align 4, !tbaa !8
  %39 = mul nsw i32 2, %38
  %40 = add nsw i32 %39, 4
  %41 = sext i32 %40 to i64
  %42 = mul nsw i64 %37, %41
  %43 = load i32, ptr %8, align 4, !tbaa !8
  %44 = load i32, ptr %8, align 4, !tbaa !8
  %45 = add nsw i32 %44, 5
  %46 = mul nsw i32 %43, %45
  %47 = sext i32 %46 to i64
  %48 = add nsw i64 %42, %47
  %49 = add nsw i64 %48, 2
  %50 = load ptr, ptr %5, align 8, !tbaa !75
  store i64 %49, ptr %50, align 8, !tbaa !82
  %51 = load i64, ptr %9, align 8, !tbaa !82
  %52 = load i32, ptr %8, align 4, !tbaa !8
  %53 = mul nsw i32 2, %52
  %54 = add nsw i32 %53, 4
  %55 = sext i32 %54 to i64
  %56 = mul nsw i64 %51, %55
  %57 = load ptr, ptr %6, align 8, !tbaa !75
  store i64 %56, ptr %57, align 8, !tbaa !82
  call void @llvm.lifetime.end.p0(i64 8, ptr %10) #6
  call void @llvm.lifetime.end.p0(i64 8, ptr %9) #6
  call void @llvm.lifetime.end.p0(i64 4, ptr %8) #6
  call void @llvm.lifetime.end.p0(i64 8, ptr %7) #6
  ret i32 0
}