; Function Attrs: nounwind uwtable
define noundef i32 @SUNLinSolSpace_SPFGMR(ptr noundef readonly captures(none) %0, ptr noundef writeonly captures(none) initializes((0, 8)) %1, ptr noundef writeonly captures(none) initializes((0, 8)) %2) #0 {
  %4 = alloca i64, align 8
  %5 = alloca i64, align 8
  call void @llvm.lifetime.start.p0(i64 8, ptr nonnull %4) #12
  call void @llvm.lifetime.start.p0(i64 8, ptr nonnull %5) #12
  %6 = load ptr, ptr %0, align 8, !tbaa !26
  %7 = load i32, ptr %6, align 8, !tbaa !35
  %8 = getelementptr inbounds nuw i8, ptr %6, i64 144
  %9 = load ptr, ptr %8, align 8, !tbaa !39
  %10 = getelementptr inbounds nuw i8, ptr %9, i64 8
  %11 = load ptr, ptr %10, align 8, !tbaa !62
  %12 = getelementptr inbounds nuw i8, ptr %11, i64 32
  %13 = load ptr, ptr %12, align 8, !tbaa !65
  %.not = icmp eq ptr %13, null
  br i1 %.not, label %15, label %14

14:                                               ; preds = %3
  call void @N_VSpace(ptr noundef nonnull %9, ptr noundef nonnull %5, ptr noundef nonnull %4) #12
  %.pre = load i64, ptr %5, align 8, !tbaa !67
  %.pre9 = load i64, ptr %4, align 8, !tbaa !67
  br label %15

15:                                               ; preds = %3, %14
  %16 = phi i64 [ %.pre9, %14 ], [ 0, %3 ]
  %17 = phi i64 [ %.pre, %14 ], [ 0, %3 ]
  %18 = shl nsw i32 %7, 1
  %19 = add nsw i32 %18, 4
  %20 = sext i32 %19 to i64
  %21 = mul nsw i64 %17, %20
  %22 = add nsw i32 %7, 5
  %23 = mul nsw i32 %22, %7
  %24 = sext i32 %23 to i64
  %25 = add nsw i64 %24, 2
  %26 = add i64 %25, %21
  store i64 %26, ptr %1, align 8, !tbaa !67
  %27 = mul nsw i64 %16, %20
  store i64 %27, ptr %2, align 8, !tbaa !67
  call void @llvm.lifetime.end.p0(i64 8, ptr nonnull %5) #12
  call void @llvm.lifetime.end.p0(i64 8, ptr nonnull %4) #12
  ret i32 0
}